; Function Attrs: nounwind uwtable
define ptr @l___private_Lean_Data_Lsp_Utf16_0__String_codepointPosToUtf16PosFromAux(ptr noundef %0, ptr noundef %1, ptr noundef %2, ptr noundef %3) local_unnamed_addr #1 {
  br label %lean_dec.exit32

lean_dec.exit32:                                  ; preds = %lean_dec.exit32.backedge, %4
  %.028 = phi ptr [ %3, %4 ], [ %.028.be, %lean_dec.exit32.backedge ]
  %.026 = phi ptr [ %2, %4 ], [ %20, %lean_dec.exit32.backedge ]
  %.024 = phi ptr [ %1, %4 ], [ %.1.i51, %lean_dec.exit32.backedge ]
  %5 = ptrtoint ptr %.024 to i64
  %6 = and i64 %5, 1
  %.not = icmp eq i64 %6, 0
  br i1 %.not, label %lean_nat_eq.exit.thread, label %lean_nat_eq.exit, !prof !11

lean_nat_eq.exit:                                 ; preds = %lean_dec.exit32
  %.not62 = icmp eq ptr %.024, inttoptr (i64 1 to ptr)
  br i1 %.not62, label %55, label %8

lean_nat_eq.exit.thread:                          ; preds = %lean_dec.exit32
  %7 = tail call zeroext i1 @lean_nat_big_eq(ptr noundef %.024, ptr noundef nonnull inttoptr (i64 1 to ptr)) #4
  br i1 %7, label %55, label %.thread

8:                                                ; preds = %lean_nat_eq.exit
  %9 = icmp ult ptr %.024, inttoptr (i64 2 to ptr)
  br i1 %9, label %lean_dec.exit35, label %10

10:                                               ; preds = %8
  %11 = add i64 %5, -2
  %12 = inttoptr i64 %11 to ptr
  br label %lean_dec.exit35

.thread:                                          ; preds = %lean_nat_eq.exit.thread
  %13 = tail call ptr @lean_nat_big_sub(ptr noundef %.024, ptr noundef nonnull inttoptr (i64 3 to ptr)) #4
  %14 = load i32, ptr %.024, align 4, !tbaa !4
  %15 = icmp sgt i32 %14, 1
  br i1 %15, label %16, label %18, !prof !9

16:                                               ; preds = %.thread
  %17 = add nsw i32 %14, -1
  store i32 %17, ptr %.024, align 4, !tbaa !4
  br label %lean_dec.exit35

18:                                               ; preds = %.thread
  %.not.i = icmp eq i32 %14, 0
  br i1 %.not.i, label %lean_dec.exit35, label %19

19:                                               ; preds = %18
  tail call void @lean_dec_ref_cold(ptr noundef nonnull %.024) #4
  br label %lean_dec.exit35

lean_dec.exit35:                                  ; preds = %10, %8, %19, %18, %16
  %.1.i51 = phi ptr [ %13, %16 ], [ %13, %18 ], [ %13, %19 ], [ inttoptr (i64 1 to ptr), %8 ], [ %12, %10 ]
  %20 = tail call ptr @lean_string_utf8_next(ptr noundef %0, ptr noundef %.026) #4
  %21 = tail call i32 @lean_string_utf8_get(ptr noundef %0, ptr noundef %.026) #4
  %22 = ptrtoint ptr %.026 to i64
  %23 = and i64 %22, 1
  %.not64 = icmp eq i64 %23, 0
  br i1 %.not64, label %24, label %lean_dec.exit34

24:                                               ; preds = %lean_dec.exit35
  %25 = load i32, ptr %.026, align 4, !tbaa !4
  %26 = icmp sgt i32 %25, 1
  br i1 %26, label %27, label %29, !prof !9

27:                                               ; preds = %24
  %28 = add nsw i32 %25, -1
  store i32 %28, ptr %.026, align 4, !tbaa !4
  br label %lean_dec.exit34

29:                                               ; preds = %24
  %.not.i36 = icmp eq i32 %25, 0
  br i1 %.not.i36, label %lean_dec.exit34, label %30

30:                                               ; preds = %29
  tail call void @lean_dec_ref_cold(ptr noundef nonnull %.026) #4
  br label %lean_dec.exit34

lean_dec.exit34:                                  ; preds = %30, %29, %27, %lean_dec.exit35
  %31 = icmp ugt i32 %21, 65535
  %32 = select i1 %31, ptr inttoptr (i64 5 to ptr), ptr inttoptr (i64 3 to ptr)
  %33 = ptrtoint ptr %.028 to i64
  %34 = and i64 %33, 1
  %.not65 = icmp eq i64 %34, 0
  br i1 %.not65, label %47, label %35, !prof !11

35:                                               ; preds = %lean_dec.exit34
  %36 = ptrtoint ptr %32 to i64
  %37 = lshr i64 %33, 1
  %38 = lshr i64 %36, 1
  %39 = add nuw i64 %38, %37
  %40 = icmp sgt i64 %39, -1
  br i1 %40, label %41, label %45, !prof !9

41:                                               ; preds = %35
  %42 = shl nuw i64 %39, 1
  %43 = or disjoint i64 %42, 1
  %44 = inttoptr i64 %43 to ptr
  br label %lean_dec.exit32.backedge

45:                                               ; preds = %35
  %46 = tail call ptr @lean_big_usize_to_nat(i64 noundef range(i64 0, -1) %39) #4
  br label %lean_dec.exit32.backedge

lean_dec.exit32.backedge:                         ; preds = %45, %41, %51, %53, %54
  %.028.be = phi ptr [ %48, %51 ], [ %48, %53 ], [ %48, %54 ], [ %46, %45 ], [ %44, %41 ]
  br label %lean_dec.exit32

47:                                               ; preds = %lean_dec.exit34
  %48 = tail call ptr @lean_nat_big_add(ptr noundef %.028, ptr noundef nonnull %32) #4
  %49 = load i32, ptr %.028, align 4, !tbaa !4
  %50 = icmp sgt i32 %49, 1
  br i1 %50, label %51, label %53, !prof !9

51:                                               ; preds = %47
  %52 = add nsw i32 %49, -1
  store i32 %52, ptr %.028, align 4, !tbaa !4
  br label %lean_dec.exit32.backedge

53:                                               ; preds = %47
  %.not.i40 = icmp eq i32 %49, 0
  br i1 %.not.i40, label %lean_dec.exit32.backedge, label %54

54:                                               ; preds = %53
  tail call void @lean_dec_ref_cold(ptr noundef nonnull %.028) #4
  br label %lean_dec.exit32.backedge

55:                                               ; preds = %lean_nat_eq.exit.thread, %lean_nat_eq.exit
  %56 = ptrtoint ptr %.026 to i64
  %57 = and i64 %56, 1
  %.not63 = icmp eq i64 %57, 0
  br i1 %.not63, label %58, label %lean_dec.exit31

58:                                               ; preds = %55
  %59 = load i32, ptr %.026, align 4, !tbaa !4
  %60 = icmp sgt i32 %59, 1
  br i1 %60, label %61, label %63, !prof !9

61:                                               ; preds = %58
  %62 = add nsw i32 %59, -1
  store i32 %62, ptr %.026, align 4, !tbaa !4
  br label %lean_dec.exit31

63:                                               ; preds = %58
  %.not.i42 = icmp eq i32 %59, 0
  br i1 %.not.i42, label %lean_dec.exit31, label %64

64:                                               ; preds = %63
  tail call void @lean_dec_ref_cold(ptr noundef nonnull %.026) #4
  br label %lean_dec.exit31

lean_dec.exit31:                                  ; preds = %64, %63, %61, %55
  br i1 %.not, label %65, label %72

65:                                               ; preds = %lean_dec.exit31
  %66 = load i32, ptr %.024, align 4, !tbaa !4
  %67 = icmp sgt i32 %66, 1
  br i1 %67, label %68, label %70, !prof !9

68:                                               ; preds = %65
  %69 = add nsw i32 %66, -1
  store i32 %69, ptr %.024, align 4, !tbaa !4
  br label %72

70:                                               ; preds = %65
  %.not.i44 = icmp eq i32 %66, 0
  br i1 %.not.i44, label %72, label %71

71:                                               ; preds = %70
  tail call void @lean_dec_ref_cold(ptr noundef nonnull %.024) #4
  br label %72

72:                                               ; preds = %71, %70, %68, %lean_dec.exit31
  ret ptr %.028
}